target datalayout = "e-m:e-p270:32:32-p271:32:32-p272:64:64-i64:64-i128:128-f80:128-n8:16:32:64-S128"
target triple = "x86_64-pc-linux-gnu"

; Function Attrs: nounwind uwtable
define internal zeroext i8 @clip_pixel(i32 noundef %0) #0 {
  %2 = alloca i32, align 4
  store i32 %0, ptr %2, align 4
  %3 = load i32, ptr %2, align 4
  %4 = icmp sgt i32 %3, 255
  br i1 %4, label %5, label %6

5:                                                ; preds = %1
  br label %14

6:                                                ; preds = %1
  %7 = load i32, ptr %2, align 4
  %8 = icmp slt i32 %7, 0
  br i1 %8, label %9, label %10

9:                                                ; preds = %6
  br label %12

10:                                               ; preds = %6
  %11 = load i32, ptr %2, align 4
  br label %12

12:                                               ; preds = %10, %9
  %13 = phi i32 [ 0, %9 ], [ %11, %10 ]
  br label %14

14:                                               ; preds = %12, %5
  %15 = phi i32 [ 255, %5 ], [ %13, %12 ]
  %16 = trunc i32 %15 to i8
  ret i8 %16
}

; Function Attrs: nounwind uwtable
define hidden void @av1_upsample_intra_edge_c(ptr noundef %0, i32 noundef %1) #0 {
  %3 = alloca ptr, align 8
  %4 = alloca i32, align 4
  %5 = alloca [19 x i8], align 16
  %6 = alloca i32, align 4
  %7 = alloca i32, align 4
  %8 = alloca i32, align 4
  store ptr %0, ptr %3, align 8
  store i32 %1, ptr %4, align 4
  %9 = load ptr, ptr %3, align 8
  %10 = getelementptr inbounds i8, ptr %9, i64 -1
  %11 = load i8, ptr %10, align 1
  %12 = getelementptr inbounds [19 x i8], ptr %5, i64 0, i64 0
  store i8 %11, ptr %12, align 16
  %13 = load ptr, ptr %3, align 8
  %14 = getelementptr inbounds i8, ptr %13, i64 -1
  %15 = load i8, ptr %14, align 1
  %16 = getelementptr inbounds [19 x i8], ptr %5, i64 0, i64 1
  store i8 %15, ptr %16, align 1
  store i32 0, ptr %6, align 4
  br label %17

17:                                               ; preds = %31, %2
  %18 = load i32, ptr %6, align 4
  %19 = load i32, ptr %4, align 4
  %20 = icmp slt i32 %18, %19
  br i1 %20, label %21, label %34

21:                                               ; preds = %17
  %22 = load ptr, ptr %3, align 8
  %23 = load i32, ptr %6, align 4
  %24 = sext i32 %23 to i64
  %25 = getelementptr inbounds i8, ptr %22, i64 %24
  %26 = load i8, ptr %25, align 1
  %27 = load i32, ptr %6, align 4
  %28 = add nsw i32 %27, 2
  %29 = sext i32 %28 to i64
  %30 = getelementptr inbounds [19 x i8], ptr %5, i64 0, i64 %29
  store i8 %26, ptr %30, align 1
  br label %31

31:                                               ; preds = %21
  %32 = load i32, ptr %6, align 4
  %33 = add nsw i32 %32, 1
  store i32 %33, ptr %6, align 4
  br label %17, !llvm.loop !30

34:                                               ; preds = %17
  %35 = load ptr, ptr %3, align 8
  %36 = load i32, ptr %4, align 4
  %37 = sub nsw i32 %36, 1
  %38 = sext i32 %37 to i64
  %39 = getelementptr inbounds i8, ptr %35, i64 %38
  %40 = load i8, ptr %39, align 1
  %41 = load i32, ptr %4, align 4
  %42 = add nsw i32 %41, 2
  %43 = sext i32 %42 to i64
  %44 = getelementptr inbounds [19 x i8], ptr %5, i64 0, i64 %43
  store i8 %40, ptr %44, align 1
  %45 = getelementptr inbounds [19 x i8], ptr %5, i64 0, i64 0
  %46 = load i8, ptr %45, align 16
  %47 = load ptr, ptr %3, align 8
  %48 = getelementptr inbounds i8, ptr %47, i64 -2
  store i8 %46, ptr %48, align 1
  store i32 0, ptr %7, align 4
  br label %49

49:                                               ; preds = %106, %34
  %50 = load i32, ptr %7, align 4
  %51 = load i32, ptr %4, align 4
  %52 = icmp slt i32 %50, %51
  br i1 %52, label %53, label %109

53:                                               ; preds = %49
  %54 = load i32, ptr %7, align 4
  %55 = sext i32 %54 to i64
  %56 = getelementptr inbounds [19 x i8], ptr %5, i64 0, i64 %55
  %57 = load i8, ptr %56, align 1
  %58 = zext i8 %57 to i32
  %59 = sub nsw i32 0, %58
  %60 = load i32, ptr %7, align 4
  %61 = add nsw i32 %60, 1
  %62 = sext i32 %61 to i64
  %63 = getelementptr inbounds [19 x i8], ptr %5, i64 0, i64 %62
  %64 = load i8, ptr %63, align 1
  %65 = zext i8 %64 to i32
  %66 = mul nsw i32 9, %65
  %67 = add nsw i32 %59, %66
  %68 = load i32, ptr %7, align 4
  %69 = add nsw i32 %68, 2
  %70 = sext i32 %69 to i64
  %71 = getelementptr inbounds [19 x i8], ptr %5, i64 0, i64 %70
  %72 = load i8, ptr %71, align 1
  %73 = zext i8 %72 to i32
  %74 = mul nsw i32 9, %73
  %75 = add nsw i32 %67, %74
  %76 = load i32, ptr %7, align 4
  %77 = add nsw i32 %76, 3
  %78 = sext i32 %77 to i64
  %79 = getelementptr inbounds [19 x i8], ptr %5, i64 0, i64 %78
  %80 = load i8, ptr %79, align 1
  %81 = zext i8 %80 to i32
  %82 = sub nsw i32 %75, %81
  store i32 %82, ptr %8, align 4
  %83 = load i32, ptr %8, align 4
  %84 = add nsw i32 %83, 8
  %85 = ashr i32 %84, 4
  %86 = call zeroext i8 @clip_pixel(i32 noundef %85)
  %87 = zext i8 %86 to i32
  store i32 %87, ptr %8, align 4
  %88 = load i32, ptr %8, align 4
  %89 = trunc i32 %88 to i8
  %90 = load ptr, ptr %3, align 8
  %91 = load i32, ptr %7, align 4
  %92 = mul nsw i32 2, %91
  %93 = sub nsw i32 %92, 1
  %94 = sext i32 %93 to i64
  %95 = getelementptr inbounds i8, ptr %90, i64 %94
  store i8 %89, ptr %95, align 1
  %96 = load i32, ptr %7, align 4
  %97 = add nsw i32 %96, 2
  %98 = sext i32 %97 to i64
  %99 = getelementptr inbounds [19 x i8], ptr %5, i64 0, i64 %98
  %100 = load i8, ptr %99, align 1
  %101 = load ptr, ptr %3, align 8
  %102 = load i32, ptr %7, align 4
  %103 = mul nsw i32 2, %102
  %104 = sext i32 %103 to i64
  %105 = getelementptr inbounds i8, ptr %101, i64 %104
  store i8 %100, ptr %105, align 1
  br label %106

106:                                              ; preds = %53
  %107 = load i32, ptr %7, align 4
  %108 = add nsw i32 %107, 1
  store i32 %108, ptr %7, align 4
  br label %49, !llvm.loop !31

109:                                              ; preds = %49
  ret void
}