; Function Attrs: nofree norecurse nosync nounwind memory(argmem: readwrite) uwtable
define hidden void @av1_upsample_intra_edge_c(ptr nocapture noundef %0, i32 noundef %1) local_unnamed_addr #0 {
  %3 = alloca [19 x i8], align 16
  %4 = getelementptr inbounds i8, ptr %0, i64 -1
  %5 = load i8, ptr %4, align 1
  store i8 %5, ptr %3, align 16
  %6 = getelementptr inbounds i8, ptr %3, i64 1
  store i8 %5, ptr %6, align 1
  %7 = icmp sgt i32 %1, 0
  br i1 %7, label %.lr.ph.preheader, label %._crit_edge

.lr.ph.preheader:                                 ; preds = %2
  %scevgep = getelementptr inbounds i8, ptr %3, i64 2
  %8 = zext nneg i32 %1 to i64
  call void @llvm.memcpy.p0.p0.i64(ptr nonnull align 2 %scevgep, ptr nonnull align 1 %0, i64 %8, i1 false)
  br label %._crit_edge

._crit_edge:                                      ; preds = %.lr.ph.preheader, %2
  %9 = sext i32 %1 to i64
  %10 = getelementptr i8, ptr %0, i64 %9
  %11 = getelementptr i8, ptr %10, i64 -1
  %12 = load i8, ptr %11, align 1
  %13 = add nsw i32 %1, 2
  %14 = sext i32 %13 to i64
  %15 = getelementptr inbounds [19 x i8], ptr %3, i64 0, i64 %14
  store i8 %12, ptr %15, align 1
  %16 = load i8, ptr %3, align 16
  %17 = getelementptr inbounds i8, ptr %0, i64 -2
  store i8 %16, ptr %17, align 1
  br i1 %7, label %.lr.ph32.preheader, label %._crit_edge33

.lr.ph32.preheader:                               ; preds = %._crit_edge
  %wide.trip.count = zext nneg i32 %1 to i64
  %.pre = load i8, ptr %6, align 1
  %.phi.trans.insert36 = getelementptr inbounds i8, ptr %3, i64 2
  %.pre37 = load i8, ptr %.phi.trans.insert36, align 2
  br label %.lr.ph32

.lr.ph32:                                         ; preds = %.lr.ph32.preheader, %.lr.ph32
  %18 = phi i8 [ %.pre37, %.lr.ph32.preheader ], [ %26, %.lr.ph32 ]
  %19 = phi i8 [ %.pre, %.lr.ph32.preheader ], [ %18, %.lr.ph32 ]
  %20 = phi i8 [ %16, %.lr.ph32.preheader ], [ %19, %.lr.ph32 ]
  %indvars.iv = phi i64 [ 0, %.lr.ph32.preheader ], [ %indvars.iv.next, %.lr.ph32 ]
  %21 = zext i8 %20 to i32
  %indvars.iv.next = add nuw nsw i64 %indvars.iv, 1
  %22 = zext i8 %19 to i32
  %23 = zext i8 %18 to i32
  %24 = add nuw nsw i64 %indvars.iv, 3
  %25 = getelementptr inbounds [19 x i8], ptr %3, i64 0, i64 %24
  %26 = load i8, ptr %25, align 1
  %27 = zext i8 %26 to i32
  %28 = add nuw nsw i32 %23, %22
  %29 = mul nuw nsw i32 %28, 9
  %30 = add nuw nsw i32 %21, %27
  %reass.sub = sub nsw i32 %29, %30
  %31 = add nsw i32 %reass.sub, 8
  %32 = ashr i32 %31, 4
  %33 = tail call i32 @llvm.smax.i32(i32 %32, i32 0)
  %34 = tail call i32 @llvm.umin.i32(i32 %33, i32 255)
  %35 = trunc nuw i32 %34 to i8
  %36 = shl nuw nsw i64 %indvars.iv, 1
  %37 = getelementptr i8, ptr %0, i64 %36
  %38 = getelementptr i8, ptr %37, i64 -1
  store i8 %35, ptr %38, align 1
  store i8 %18, ptr %37, align 1
  %exitcond.not = icmp eq i64 %indvars.iv.next, %wide.trip.count
  br i1 %exitcond.not, label %._crit_edge33, label %.lr.ph32, !llvm.loop !30

._crit_edge33:                                    ; preds = %.lr.ph32, %._crit_edge
  ret void
}